target datalayout = "e-m:e-p270:32:32-p271:32:32-p272:64:64-i64:64-i128:128-f80:128-n8:16:32:64-S128"
target triple = "x86_64-pc-linux-gnu"

%struct.Color = type { i8, i8, i8, i8 }
%struct.Vector2 = type { float, float }

; Function Attrs: nounwind uwtable
define void @DrawPolyLines(<2 x float> %0, i32 noundef %1, float noundef %2, float noundef %3, i32 %4) #0 {
  %6 = alloca %struct.Vector2, align 4
  %7 = alloca %struct.Color, align 1
  %8 = alloca i32, align 4
  %9 = alloca float, align 4
  %10 = alloca float, align 4
  %11 = alloca float, align 4
  %12 = alloca float, align 4
  %13 = alloca i32, align 4
  store <2 x float> %0, ptr %6, align 4
  store i32 %4, ptr %7, align 1
  store i32 %1, ptr %8, align 4
  store float %2, ptr %9, align 4
  store float %3, ptr %10, align 4
  %14 = load i32, ptr %8, align 4
  %15 = icmp slt i32 %14, 3
  br i1 %15, label %16, label %17

16:                                               ; preds = %5
  store i32 3, ptr %8, align 4
  br label %17

17:                                               ; preds = %16, %5
  call void @llvm.lifetime.start.p0(i64 4, ptr %11) #8
  %18 = load float, ptr %10, align 4
  %19 = fmul float %18, 0x3F91DF46A0000000
  store float %19, ptr %11, align 4
  call void @llvm.lifetime.start.p0(i64 4, ptr %12) #8
  %20 = load i32, ptr %8, align 4
  %21 = sitofp i32 %20 to float
  %22 = fdiv float 3.600000e+02, %21
  %23 = fmul float %22, 0x3F91DF46A0000000
  store float %23, ptr %12, align 4
  call void @rlBegin(i32 noundef 1)
  call void @llvm.lifetime.start.p0(i64 4, ptr %13) #8
  store i32 0, ptr %13, align 4
  br label %24

24:                                               ; preds = %69, %17
  %25 = load i32, ptr %13, align 4
  %26 = load i32, ptr %8, align 4
  %27 = icmp slt i32 %25, %26
  br i1 %27, label %29, label %28

28:                                               ; preds = %24
  call void @llvm.lifetime.end.p0(i64 4, ptr %13) #8
  br label %72

29:                                               ; preds = %24
  %30 = getelementptr inbounds nuw %struct.Color, ptr %7, i32 0, i32 0
  %31 = load i8, ptr %30, align 1
  %32 = getelementptr inbounds nuw %struct.Color, ptr %7, i32 0, i32 1
  %33 = load i8, ptr %32, align 1
  %34 = getelementptr inbounds nuw %struct.Color, ptr %7, i32 0, i32 2
  %35 = load i8, ptr %34, align 1
  %36 = getelementptr inbounds nuw %struct.Color, ptr %7, i32 0, i32 3
  %37 = load i8, ptr %36, align 1
  call void @rlColor4ub(i8 noundef zeroext %31, i8 noundef zeroext %33, i8 noundef zeroext %35, i8 noundef zeroext %37)
  %38 = getelementptr inbounds nuw %struct.Vector2, ptr %6, i32 0, i32 0
  %39 = load float, ptr %38, align 4
  %40 = load float, ptr %11, align 4
  %41 = call float @cosf(float noundef %40) #8
  %42 = load float, ptr %9, align 4
  %43 = call float @llvm.fmuladd.f32(float %41, float %42, float %39)
  %44 = getelementptr inbounds nuw %struct.Vector2, ptr %6, i32 0, i32 1
  %45 = load float, ptr %44, align 4
  %46 = load float, ptr %11, align 4
  %47 = call float @sinf(float noundef %46) #8
  %48 = load float, ptr %9, align 4
  %49 = call float @llvm.fmuladd.f32(float %47, float %48, float %45)
  call void @rlVertex2f(float noundef %43, float noundef %49)
  %50 = getelementptr inbounds nuw %struct.Vector2, ptr %6, i32 0, i32 0
  %51 = load float, ptr %50, align 4
  %52 = load float, ptr %11, align 4
  %53 = load float, ptr %12, align 4
  %54 = fadd float %52, %53
  %55 = call float @cosf(float noundef %54) #8
  %56 = load float, ptr %9, align 4
  %57 = call float @llvm.fmuladd.f32(float %55, float %56, float %51)
  %58 = getelementptr inbounds nuw %struct.Vector2, ptr %6, i32 0, i32 1
  %59 = load float, ptr %58, align 4
  %60 = load float, ptr %11, align 4
  %61 = load float, ptr %12, align 4
  %62 = fadd float %60, %61
  %63 = call float @sinf(float noundef %62) #8
  %64 = load float, ptr %9, align 4
  %65 = call float @llvm.fmuladd.f32(float %63, float %64, float %59)
  call void @rlVertex2f(float noundef %57, float noundef %65)
  %66 = load float, ptr %12, align 4
  %67 = load float, ptr %11, align 4
  %68 = fadd float %67, %66
  store float %68, ptr %11, align 4
  br label %69

69:                                               ; preds = %29
  %70 = load i32, ptr %13, align 4
  %71 = add nsw i32 %70, 1
  store i32 %71, ptr %13, align 4
  br label %24

72:                                               ; preds = %28
  call void @rlEnd()
  call void @llvm.lifetime.end.p0(i64 4, ptr %12) #8
  call void @llvm.lifetime.end.p0(i64 4, ptr %11) #8
  ret void
}