; Function Attrs: nounwind uwtable
define void @DrawPolyLines(<2 x float> %0, i32 noundef %1, float noundef %2, float noundef %3, i32 %4) local_unnamed_addr #4 {
  %.sroa.0.0.extract.trunc = trunc i32 %4 to i8
  %.sroa.2.0.extract.shift = lshr i32 %4, 8
  %.sroa.2.0.extract.trunc = trunc i32 %.sroa.2.0.extract.shift to i8
  %.sroa.3.0.extract.shift = lshr i32 %4, 16
  %.sroa.3.0.extract.trunc = trunc i32 %.sroa.3.0.extract.shift to i8
  %.sroa.4.0.extract.shift = lshr i32 %4, 24
  %.sroa.4.0.extract.trunc = trunc nuw i32 %.sroa.4.0.extract.shift to i8
  %spec.store.select = tail call i32 @llvm.smax.i32(i32 %1, i32 3)
  %6 = fmul float %3, 0x3F91DF46A0000000
  %7 = uitofp nneg i32 %spec.store.select to float
  %8 = fdiv float 3.600000e+02, %7
  %9 = fmul float %8, 0x3F91DF46A0000000
  tail call void @rlBegin(i32 noundef 1) #16
  %.sroa.017.0.vec.extract = extractelement <2 x float> %0, i64 0
  %.sroa.017.4.vec.extract = extractelement <2 x float> %0, i64 1
  br label %11

10:                                               ; preds = %11
  tail call void @rlEnd() #16
  ret void

11:                                               ; preds = %5, %11
  %.024 = phi i32 [ 0, %5 ], [ %21, %11 ]
  %.02223 = phi float [ %6, %5 ], [ %16, %11 ]
  tail call void @rlColor4ub(i8 noundef zeroext %.sroa.0.0.extract.trunc, i8 noundef zeroext %.sroa.2.0.extract.trunc, i8 noundef zeroext %.sroa.3.0.extract.trunc, i8 noundef zeroext %.sroa.4.0.extract.trunc) #16
  %12 = tail call float @cosf(float noundef %.02223) #16
  %13 = tail call float @llvm.fmuladd.f32(float %12, float %2, float %.sroa.017.0.vec.extract)
  %14 = tail call float @sinf(float noundef %.02223) #16
  %15 = tail call float @llvm.fmuladd.f32(float %14, float %2, float %.sroa.017.4.vec.extract)
  tail call void @rlVertex2f(float noundef %13, float noundef %15) #16
  %16 = fadd float %9, %.02223
  %17 = tail call float @cosf(float noundef %16) #16
  %18 = tail call float @llvm.fmuladd.f32(float %17, float %2, float %.sroa.017.0.vec.extract)
  %19 = tail call float @sinf(float noundef %16) #16
  %20 = tail call float @llvm.fmuladd.f32(float %19, float %2, float %.sroa.017.4.vec.extract)
  tail call void @rlVertex2f(float noundef %18, float noundef %20) #16
  %21 = add nuw nsw i32 %.024, 1
  %exitcond.not = icmp eq i32 %21, %spec.store.select
  br i1 %exitcond.not, label %10, label %11
}